target datalayout = "e-m:e-p270:32:32-p271:32:32-p272:64:64-i64:64-i128:128-f80:128-n8:16:32:64-S128"
target triple = "x86_64-unknown-linux-gnu"

%"class.boost::detail::shared_count" = type { ptr }
%"class.QuantLib::Date" = type { i64 }
%"class.boost::shared_ptr.17" = type { ptr, %"class.boost::detail::shared_count" }
%"class.QuantLib::Null" = type { i8 }
%"class.boost::detail::sp_counted_base" = type { ptr, i32, i32 }

; Function Attrs: inlinehint mustprogress nounwind uwtable
define linkonce_odr void @_ZN5boost6detail16atomic_incrementEPj(ptr noundef %pw) #6 comdat {
entry:
  %pw.addr = alloca ptr, align 8
  %.atomictmp = alloca i32, align 4
  %atomic-temp = alloca i32, align 4
  store ptr %pw, ptr %pw.addr, align 8, !tbaa !3
  %0 = load ptr, ptr %pw.addr, align 8, !tbaa !3
  store i32 1, ptr %.atomictmp, align 4, !tbaa !38
  %1 = load i32, ptr %.atomictmp, align 4
  %2 = atomicrmw add ptr %0, i32 %1 monotonic, align 4
  store i32 %2, ptr %atomic-temp, align 4
  ret void
}

; Function Attrs: mustprogress nounwind uwtable
define linkonce_odr noundef float @_ZNSt14numeric_limitsIfE3maxEv() #5 comdat align 2 {
entry:
  ret float 0x47EFFFFFE0000000
}

; Function Attrs: mustprogress uwtable
define linkonce_odr void @_ZN5boost6detail15sp_counted_base12add_ref_copyEv(ptr noundef nonnull align 8 dereferenceable(16) %this) #2 comdat align 2 {
entry:
  %this.addr = alloca ptr, align 8
  store ptr %this, ptr %this.addr, align 8, !tbaa !3
  %this1 = load ptr, ptr %this.addr, align 8
  %use_count_ = getelementptr inbounds nuw %"class.boost::detail::sp_counted_base", ptr %this1, i32 0, i32 1
  call void @_ZN5boost6detail16atomic_incrementEPj(ptr noundef %use_count_)
  ret void
}

; Function Attrs: mustprogress nounwind uwtable
define linkonce_odr noundef float @_ZN8QuantLib6detail17FloatingPointNullILb1EE9nullValueEv() #5 comdat align 2 {
entry:
  %call = call noundef float @_ZNSt14numeric_limitsIfE3maxEv() #16
  ret float %call
}

; Function Attrs: mustprogress nounwind uwtable
define linkonce_odr void @_ZN5boost6detail12shared_countC2ERKS1_(ptr noundef nonnull align 8 dereferenceable(8) %this, ptr noundef nonnull align 8 dereferenceable(8) %r) unnamed_addr #5 comdat align 2 personality ptr @__gxx_personality_v0 {
entry:
  %this.addr = alloca ptr, align 8
  %r.addr = alloca ptr, align 8
  store ptr %this, ptr %this.addr, align 8, !tbaa !3
  store ptr %r, ptr %r.addr, align 8, !tbaa !3
  %this1 = load ptr, ptr %this.addr, align 8
  %pi_ = getelementptr inbounds nuw %"class.boost::detail::shared_count", ptr %this1, i32 0, i32 0
  %0 = load ptr, ptr %r.addr, align 8, !tbaa !3
  %pi_2 = getelementptr inbounds nuw %"class.boost::detail::shared_count", ptr %0, i32 0, i32 0
  %1 = load ptr, ptr %pi_2, align 8, !tbaa !49
  store ptr %1, ptr %pi_, align 8, !tbaa !49
  %pi_3 = getelementptr inbounds nuw %"class.boost::detail::shared_count", ptr %this1, i32 0, i32 0
  %2 = load ptr, ptr %pi_3, align 8, !tbaa !49
  %cmp = icmp ne ptr %2, null
  br i1 %cmp, label %if.then, label %if.end

if.then:                                          ; preds = %entry
  %pi_4 = getelementptr inbounds nuw %"class.boost::detail::shared_count", ptr %this1, i32 0, i32 0
  %3 = load ptr, ptr %pi_4, align 8, !tbaa !49
  invoke void @_ZN5boost6detail15sp_counted_base12add_ref_copyEv(ptr noundef nonnull align 8 dereferenceable(16) %3)
          to label %invoke.cont unwind label %terminate.lpad

invoke.cont:                                      ; preds = %if.then
  br label %if.end

if.end:                                           ; preds = %invoke.cont, %entry
  ret void

terminate.lpad:                                   ; preds = %if.then
  %4 = landingpad { ptr, i32 }
          catch ptr null
  %5 = extractvalue { ptr, i32 } %4, 0
  call void @__clang_call_terminate(ptr %5) #17
  unreachable
}

; Function Attrs: mustprogress uwtable
define linkonce_odr noundef double @_ZNK8QuantLib4NullIdEcvdEv(ptr noundef nonnull align 1 dereferenceable(1) %this) #2 comdat align 2 {
entry:
  %this.addr = alloca ptr, align 8
  store ptr %this, ptr %this.addr, align 8, !tbaa !3
  %call = call noundef float @_ZN8QuantLib6detail17FloatingPointNullILb1EE9nullValueEv()
  %conv = fpext float %call to double
  ret double %conv
}

; Function Attrs: mustprogress nounwind uwtable
define linkonce_odr void @_ZN5boost10shared_ptrIN8QuantLib11SeasonalityEEC2ERKS3_(ptr noundef nonnull align 8 dereferenceable(16) %this, ptr noundef nonnull align 8 dereferenceable(16) %r) unnamed_addr #5 comdat align 2 {
entry:
  %this.addr = alloca ptr, align 8
  %r.addr = alloca ptr, align 8
  store ptr %this, ptr %this.addr, align 8, !tbaa !3
  store ptr %r, ptr %r.addr, align 8, !tbaa !3
  %this1 = load ptr, ptr %this.addr, align 8
  %px = getelementptr inbounds nuw %"class.boost::shared_ptr.17", ptr %this1, i32 0, i32 0
  %0 = load ptr, ptr %r.addr, align 8, !tbaa !3
  %px2 = getelementptr inbounds nuw %"class.boost::shared_ptr.17", ptr %0, i32 0, i32 0
  %1 = load ptr, ptr %px2, align 8, !tbaa !33
  store ptr %1, ptr %px, align 8, !tbaa !33
  %pn = getelementptr inbounds nuw %"class.boost::shared_ptr.17", ptr %this1, i32 0, i32 1
  %2 = load ptr, ptr %r.addr, align 8, !tbaa !3
  %pn3 = getelementptr inbounds nuw %"class.boost::shared_ptr.17", ptr %2, i32 0, i32 1
  call void @_ZN5boost6detail12shared_countC2ERKS1_(ptr noundef nonnull align 8 dereferenceable(8) %pn, ptr noundef nonnull align 8 dereferenceable(8) %pn3) #16
  ret void
}

; Function Attrs: mustprogress uwtable
define void @_ZN8QuantLib26ZeroInflationTermStructureC2EjRKNS_8CalendarENS_4DateENS_9FrequencyERKNS_10DayCounterERKN5boost10shared_ptrINS_11SeasonalityEEE(ptr noundef nonnull align 8 dereferenceable(113) %this, ptr noundef %vtt, i32 noundef %settlementDays, ptr noundef nonnull align 8 dereferenceable(16) %calendar, i64 %baseDate.coerce, i32 noundef %frequency, ptr noundef nonnull align 8 dereferenceable(16) %dayCounter, ptr noundef nonnull align 8 dereferenceable(16) %seasonality) unnamed_addr #2 align 2 personality ptr @__gxx_personality_v0 {
entry:
  %baseDate = alloca %"class.QuantLib::Date", align 8
  %this.addr = alloca ptr, align 8
  %vtt.addr = alloca ptr, align 8
  %settlementDays.addr = alloca i32, align 4
  %calendar.addr = alloca ptr, align 8
  %frequency.addr = alloca i32, align 4
  %dayCounter.addr = alloca ptr, align 8
  %seasonality.addr = alloca ptr, align 8
  %agg.tmp = alloca %"class.QuantLib::Date", align 8
  %agg.tmp3 = alloca %"class.boost::shared_ptr.17", align 8
  %ref.tmp = alloca %"class.QuantLib::Null", align 1
  %exn.slot = alloca ptr, align 8
  %ehselector.slot = alloca i32, align 4
  %coerce.dive = getelementptr inbounds nuw %"class.QuantLib::Date", ptr %baseDate, i32 0, i32 0
  store i64 %baseDate.coerce, ptr %coerce.dive, align 8
  store ptr %this, ptr %this.addr, align 8, !tbaa !3
  store ptr %vtt, ptr %vtt.addr, align 8, !tbaa !3
  store i32 %settlementDays, ptr %settlementDays.addr, align 4, !tbaa !38
  store ptr %calendar, ptr %calendar.addr, align 8, !tbaa !3
  store i32 %frequency, ptr %frequency.addr, align 4, !tbaa !9
  store ptr %dayCounter, ptr %dayCounter.addr, align 8, !tbaa !3
  store ptr %seasonality, ptr %seasonality.addr, align 8, !tbaa !3
  %this1 = load ptr, ptr %this.addr, align 8
  %vtt2 = load ptr, ptr %vtt.addr, align 8
  %0 = load i32, ptr %settlementDays.addr, align 4, !tbaa !38
  %1 = load ptr, ptr %calendar.addr, align 8, !tbaa !3
  call void @llvm.memcpy.p0.p0.i64(ptr align 8 %agg.tmp, ptr align 8 %baseDate, i64 8, i1 false), !tbaa.struct !30
  %2 = load i32, ptr %frequency.addr, align 4, !tbaa !9
  %3 = load ptr, ptr %dayCounter.addr, align 8, !tbaa !3
  %4 = load ptr, ptr %seasonality.addr, align 8, !tbaa !3
  call void @_ZN5boost10shared_ptrIN8QuantLib11SeasonalityEEC2ERKS3_(ptr noundef nonnull align 8 dereferenceable(16) %agg.tmp3, ptr noundef nonnull align 8 dereferenceable(16) %4) #16
  call void @llvm.lifetime.start.p0(i64 1, ptr %ref.tmp) #16
  %call = invoke noundef double @_ZNK8QuantLib4NullIdEcvdEv(ptr noundef nonnull align 1 dereferenceable(1) %ref.tmp)
          to label %invoke.cont unwind label %lpad

invoke.cont:                                      ; preds = %entry
  %5 = getelementptr inbounds ptr, ptr %vtt2, i64 1
  %coerce.dive4 = getelementptr inbounds nuw %"class.QuantLib::Date", ptr %agg.tmp, i32 0, i32 0
  %6 = load i64, ptr %coerce.dive4, align 8
  invoke void @_ZN8QuantLib22InflationTermStructureC2EjRKNS_8CalendarENS_4DateENS_9FrequencyERKNS_10DayCounterEN5boost10shared_ptrINS_11SeasonalityEEEd(ptr noundef nonnull align 8 dereferenceable(113) %this1, ptr noundef %5, i32 noundef %0, ptr noundef nonnull align 8 dereferenceable(16) %1, i64 %6, i32 noundef %2, ptr noundef nonnull align 8 dereferenceable(16) %3, ptr noundef %agg.tmp3, double noundef %call)
          to label %invoke.cont5 unwind label %lpad

invoke.cont5:                                     ; preds = %invoke.cont
  call void @llvm.lifetime.end.p0(i64 1, ptr %ref.tmp) #16
  call void @_ZN5boost10shared_ptrIN8QuantLib11SeasonalityEED2Ev(ptr noundef nonnull align 8 dereferenceable(16) %agg.tmp3) #16
  %7 = load ptr, ptr %vtt2, align 8
  store ptr %7, ptr %this1, align 8, !tbaa !7
  %8 = getelementptr inbounds ptr, ptr %vtt2, i64 7
  %9 = load ptr, ptr %8, align 8
  %vtable = load ptr, ptr %this1, align 8, !tbaa !7
  %vbase.offset.ptr = getelementptr i8, ptr %vtable, i64 -24
  %vbase.offset = load i64, ptr %vbase.offset.ptr, align 8
  %add.ptr = getelementptr inbounds i8, ptr %this1, i64 %vbase.offset
  store ptr %9, ptr %add.ptr, align 8, !tbaa !7
  %10 = getelementptr inbounds ptr, ptr %vtt2, i64 8
  %11 = load ptr, ptr %10, align 8
  %vtable6 = load ptr, ptr %this1, align 8, !tbaa !7
  %vbase.offset.ptr7 = getelementptr i8, ptr %vtable6, i64 -32
  %vbase.offset8 = load i64, ptr %vbase.offset.ptr7, align 8
  %add.ptr9 = getelementptr inbounds i8, ptr %this1, i64 %vbase.offset8
  store ptr %11, ptr %add.ptr9, align 8, !tbaa !7
  ret void

lpad:                                             ; preds = %invoke.cont, %entry
  %12 = landingpad { ptr, i32 }
          cleanup
  %13 = extractvalue { ptr, i32 } %12, 0
  store ptr %13, ptr %exn.slot, align 8
  %14 = extractvalue { ptr, i32 } %12, 1
  store i32 %14, ptr %ehselector.slot, align 4
  call void @llvm.lifetime.end.p0(i64 1, ptr %ref.tmp) #16
  call void @_ZN5boost10shared_ptrIN8QuantLib11SeasonalityEED2Ev(ptr noundef nonnull align 8 dereferenceable(16) %agg.tmp3) #16
  br label %eh.resume

eh.resume:                                        ; preds = %lpad
  %exn = load ptr, ptr %exn.slot, align 8
  %sel = load i32, ptr %ehselector.slot, align 4
  %lpad.val = insertvalue { ptr, i32 } poison, ptr %exn, 0
  %lpad.val10 = insertvalue { ptr, i32 } %lpad.val, i32 %sel, 1
  resume { ptr, i32 } %lpad.val10
}